target datalayout = "e-m:e-p270:32:32-p271:32:32-p272:64:64-i64:64-i128:128-f80:128-n8:16:32:64-S128"
target triple = "x86_64-pc-linux-gnu"

%struct.PyVarObject = type { %struct._object, i64 }
%struct._object = type { %union.anon, ptr }
%union.anon = type { i64 }
%struct._PyTupleIterObject = type { %struct._object, i64, ptr }

@_Py_NoneStruct = external global %struct._object, align 8

; Function Attrs: inlinehint nounwind uwtable
define internal i64 @Py_SIZE(ptr noundef %0) #2 {
  %2 = alloca ptr, align 8
  store ptr %0, ptr %2, align 8, !tbaa !10
  %3 = load ptr, ptr %2, align 8, !tbaa !10
  %4 = getelementptr inbounds nuw %struct.PyVarObject, ptr %3, i32 0, i32 1
  %5 = load i64, ptr %4, align 8, !tbaa !108
  ret i64 %5
}

; Function Attrs: inlinehint nounwind uwtable
define internal i64 @PyTuple_GET_SIZE(ptr noundef %0) #2 {
  %2 = alloca ptr, align 8
  %3 = alloca ptr, align 8
  store ptr %0, ptr %2, align 8, !tbaa !10
  call void @llvm.lifetime.start.p0(i64 8, ptr %3) #9
  %4 = load ptr, ptr %2, align 8, !tbaa !10
  store ptr %4, ptr %3, align 8, !tbaa !8
  %5 = load ptr, ptr %3, align 8, !tbaa !8
  %6 = call i64 @Py_SIZE(ptr noundef %5)
  call void @llvm.lifetime.end.p0(i64 8, ptr %3) #9
  ret i64 %6
}

; Function Attrs: nounwind uwtable
define internal ptr @tupleiter_setstate(ptr noundef %0, ptr noundef %1) #0 {
  %3 = alloca ptr, align 8
  %4 = alloca ptr, align 8
  %5 = alloca ptr, align 8
  %6 = alloca ptr, align 8
  %7 = alloca i64, align 8
  %8 = alloca i32, align 4
  store ptr %0, ptr %4, align 8, !tbaa !10
  store ptr %1, ptr %5, align 8, !tbaa !10
  call void @llvm.lifetime.start.p0(i64 8, ptr %6) #9
  %9 = load ptr, ptr %4, align 8, !tbaa !10
  store ptr %9, ptr %6, align 8, !tbaa !8
  call void @llvm.lifetime.start.p0(i64 8, ptr %7) #9
  %10 = load ptr, ptr %5, align 8, !tbaa !10
  %11 = call i64 @PyLong_AsSsize_t(ptr noundef %10)
  store i64 %11, ptr %7, align 8, !tbaa !4
  %12 = load i64, ptr %7, align 8, !tbaa !4
  %13 = icmp eq i64 %12, -1
  br i1 %13, label %14, label %18

14:                                               ; preds = %2
  %15 = call ptr @PyErr_Occurred()
  %16 = icmp ne ptr %15, null
  br i1 %16, label %17, label %18

17:                                               ; preds = %14
  store ptr null, ptr %3, align 8
  store i32 1, ptr %8, align 4
  br label %45

18:                                               ; preds = %14, %2
  %19 = load ptr, ptr %6, align 8, !tbaa !8
  %20 = getelementptr inbounds nuw %struct._PyTupleIterObject, ptr %19, i32 0, i32 2
  %21 = load ptr, ptr %20, align 8, !tbaa !134
  %22 = icmp ne ptr %21, null
  br i1 %22, label %23, label %44

23:                                               ; preds = %18
  %24 = load i64, ptr %7, align 8, !tbaa !4
  %25 = icmp slt i64 %24, 0
  br i1 %25, label %26, label %27

26:                                               ; preds = %23
  store i64 0, ptr %7, align 8, !tbaa !4
  br label %40

27:                                               ; preds = %23
  %28 = load i64, ptr %7, align 8, !tbaa !4
  %29 = load ptr, ptr %6, align 8, !tbaa !8
  %30 = getelementptr inbounds nuw %struct._PyTupleIterObject, ptr %29, i32 0, i32 2
  %31 = load ptr, ptr %30, align 8, !tbaa !134
  %32 = call i64 @PyTuple_GET_SIZE(ptr noundef %31)
  %33 = icmp sgt i64 %28, %32
  br i1 %33, label %34, label %39

34:                                               ; preds = %27
  %35 = load ptr, ptr %6, align 8, !tbaa !8
  %36 = getelementptr inbounds nuw %struct._PyTupleIterObject, ptr %35, i32 0, i32 2
  %37 = load ptr, ptr %36, align 8, !tbaa !134
  %38 = call i64 @PyTuple_GET_SIZE(ptr noundef %37)
  store i64 %38, ptr %7, align 8, !tbaa !4
  br label %39

39:                                               ; preds = %34, %27
  br label %40

40:                                               ; preds = %39, %26
  %41 = load i64, ptr %7, align 8, !tbaa !4
  %42 = load ptr, ptr %6, align 8, !tbaa !8
  %43 = getelementptr inbounds nuw %struct._PyTupleIterObject, ptr %42, i32 0, i32 1
  store i64 %41, ptr %43, align 8, !tbaa !132
  br label %44

44:                                               ; preds = %40, %18
  store ptr @_Py_NoneStruct, ptr %3, align 8
  store i32 1, ptr %8, align 4
  br label %45

45:                                               ; preds = %44, %17
  call void @llvm.lifetime.end.p0(i64 8, ptr %7) #9
  call void @llvm.lifetime.end.p0(i64 8, ptr %6) #9
  %46 = load ptr, ptr %3, align 8
  ret ptr %46
}