; Function Attrs: nounwind uwtable
define internal noundef ptr @tupleiter_setstate(ptr noundef captures(none) %0, ptr noundef %1) #0 {
  %3 = tail call i64 @PyLong_AsSsize_t(ptr noundef %1) #9
  %4 = icmp eq i64 %3, -1
  br i1 %4, label %5, label %7

5:                                                ; preds = %2
  %6 = tail call ptr @PyErr_Occurred() #9
  %.not = icmp eq ptr %6, null
  br i1 %.not, label %.thread, label %17

7:                                                ; preds = %2
  %8 = getelementptr inbounds nuw i8, ptr %0, i64 24
  %9 = load ptr, ptr %8, align 8, !tbaa !127
  %.not13 = icmp eq ptr %9, null
  br i1 %.not13, label %17, label %12

.thread:                                          ; preds = %5
  %10 = getelementptr inbounds nuw i8, ptr %0, i64 24
  %11 = load ptr, ptr %10, align 8, !tbaa !127
  %.not1315 = icmp eq ptr %11, null
  br i1 %.not1315, label %17, label %.thread16

12:                                               ; preds = %7
  %13 = icmp slt i64 %3, 0
  br i1 %13, label %.thread16, label %14

14:                                               ; preds = %12
  %15 = getelementptr i8, ptr %9, i64 16
  %.val14 = load i64, ptr %15, align 8, !tbaa !107
  %spec.select = tail call i64 @llvm.smin.i64(i64 %3, i64 %.val14)
  br label %.thread16

.thread16:                                        ; preds = %14, %.thread, %12
  %.0 = phi i64 [ 0, %12 ], [ 0, %.thread ], [ %spec.select, %14 ]
  %16 = getelementptr inbounds nuw i8, ptr %0, i64 16
  store i64 %.0, ptr %16, align 8, !tbaa !125
  br label %17

17:                                               ; preds = %.thread, %7, %.thread16, %5
  %.010 = phi ptr [ null, %5 ], [ @_Py_NoneStruct, %.thread16 ], [ @_Py_NoneStruct, %7 ], [ @_Py_NoneStruct, %.thread ]
  ret ptr %.010
}